; Function Attrs: mustprogress nofree nounwind willreturn memory(write, argmem: readwrite) uwtable
define dso_local noundef float @_ZN17btHingeConstraint13getHingeAngleERK11btTransformS2_(ptr nocapture noundef nonnull readonly align 8 dereferenceable(792) %this, ptr nocapture noundef nonnull readonly align 4 dereferenceable(64) %transA, ptr nocapture noundef nonnull readonly align 4 dereferenceable(64) %transB) local_unnamed_addr #11 align 2 {
entry:
  %m_rbAFrame = getelementptr inbounds i8, ptr %this, i64 576
  %arrayidx4.i = getelementptr inbounds i8, ptr %this, i64 592
  %arrayidx9.i = getelementptr inbounds i8, ptr %this, i64 608
  %0 = load float, ptr %m_rbAFrame, align 8
  %1 = load float, ptr %arrayidx4.i, align 8
  %2 = load float, ptr %arrayidx9.i, align 8
  %3 = load float, ptr %transA, align 4
  %arrayidx5.i.i = getelementptr inbounds i8, ptr %transA, i64 4
  %4 = load float, ptr %arrayidx5.i.i, align 4
  %mul8.i.i = fmul float %1, %4
  %5 = tail call float @llvm.fmuladd.f32(float %3, float %0, float %mul8.i.i)
  %arrayidx10.i.i = getelementptr inbounds i8, ptr %transA, i64 8
  %6 = load float, ptr %arrayidx10.i.i, align 4
  %7 = tail call noundef float @llvm.fmuladd.f32(float %6, float %2, float %5)
  %arrayidx.i.i = getelementptr inbounds i8, ptr %transA, i64 16
  %8 = load float, ptr %arrayidx.i.i, align 4
  %arrayidx5.i5.i = getelementptr inbounds i8, ptr %transA, i64 20
  %9 = load float, ptr %arrayidx5.i5.i, align 4
  %arrayidx10.i8.i = getelementptr inbounds i8, ptr %transA, i64 24
  %10 = load float, ptr %arrayidx10.i8.i, align 4
  %arrayidx.i10.i = getelementptr inbounds i8, ptr %transA, i64 32
  %11 = load float, ptr %arrayidx.i10.i, align 4
  %arrayidx5.i11.i = getelementptr inbounds i8, ptr %transA, i64 36
  %12 = load float, ptr %arrayidx5.i11.i, align 4
  %mul8.i13.i = fmul float %1, %12
  %13 = tail call float @llvm.fmuladd.f32(float %11, float %0, float %mul8.i13.i)
  %arrayidx10.i14.i = getelementptr inbounds i8, ptr %transA, i64 40
  %14 = load float, ptr %arrayidx10.i14.i, align 4
  %15 = tail call noundef float @llvm.fmuladd.f32(float %14, float %2, float %13)
  %arrayidx2.i = getelementptr inbounds i8, ptr %this, i64 580
  %arrayidx7.i = getelementptr inbounds i8, ptr %this, i64 596
  %arrayidx12.i = getelementptr inbounds i8, ptr %this, i64 612
  %16 = load float, ptr %arrayidx2.i, align 4
  %17 = load float, ptr %arrayidx7.i, align 4
  %18 = load float, ptr %arrayidx12.i, align 4
  %mul8.i.i16 = fmul float %4, %17
  %19 = tail call float @llvm.fmuladd.f32(float %3, float %16, float %mul8.i.i16)
  %20 = tail call noundef float @llvm.fmuladd.f32(float %6, float %18, float %19)
  %mul8.i7.i21 = fmul float %9, %17
  %21 = tail call float @llvm.fmuladd.f32(float %8, float %16, float %mul8.i7.i21)
  %22 = tail call noundef float @llvm.fmuladd.f32(float %10, float %18, float %21)
  %mul8.i13.i25 = fmul float %12, %17
  %23 = tail call float @llvm.fmuladd.f32(float %11, float %16, float %mul8.i13.i25)
  %24 = tail call noundef float @llvm.fmuladd.f32(float %14, float %18, float %23)
  %arrayidx2.i32 = getelementptr inbounds i8, ptr %this, i64 644
  %arrayidx7.i34 = getelementptr inbounds i8, ptr %this, i64 660
  %arrayidx12.i36 = getelementptr inbounds i8, ptr %this, i64 676
  %25 = load float, ptr %arrayidx2.i32, align 4
  %26 = load float, ptr %arrayidx7.i34, align 4
  %27 = load float, ptr %arrayidx12.i36, align 4
  %28 = load float, ptr %transB, align 4
  %arrayidx5.i.i42 = getelementptr inbounds i8, ptr %transB, i64 4
  %29 = load float, ptr %arrayidx5.i.i42, align 4
  %mul8.i.i44 = fmul float %26, %29
  %30 = tail call float @llvm.fmuladd.f32(float %28, float %25, float %mul8.i.i44)
  %arrayidx10.i.i45 = getelementptr inbounds i8, ptr %transB, i64 8
  %31 = load float, ptr %arrayidx10.i.i45, align 4
  %32 = tail call noundef float @llvm.fmuladd.f32(float %31, float %27, float %30)
  %arrayidx.i.i47 = getelementptr inbounds i8, ptr %transB, i64 16
  %33 = load float, ptr %arrayidx.i.i47, align 4
  %arrayidx5.i5.i48 = getelementptr inbounds i8, ptr %transB, i64 20
  %34 = load float, ptr %arrayidx5.i5.i48, align 4
  %arrayidx10.i8.i50 = getelementptr inbounds i8, ptr %transB, i64 24
  %35 = load float, ptr %arrayidx10.i8.i50, align 4
  %36 = insertelement <2 x float> poison, float %1, i64 0
  %37 = insertelement <2 x float> %36, float %26, i64 1
  %38 = insertelement <2 x float> poison, float %9, i64 0
  %39 = insertelement <2 x float> %38, float %34, i64 1
  %40 = fmul <2 x float> %37, %39
  %41 = insertelement <2 x float> poison, float %8, i64 0
  %42 = insertelement <2 x float> %41, float %33, i64 1
  %43 = insertelement <2 x float> poison, float %0, i64 0
  %44 = insertelement <2 x float> %43, float %25, i64 1
  %45 = tail call <2 x float> @llvm.fmuladd.v2f32(<2 x float> %42, <2 x float> %44, <2 x float> %40)
  %46 = insertelement <2 x float> poison, float %10, i64 0
  %47 = insertelement <2 x float> %46, float %35, i64 1
  %48 = insertelement <2 x float> poison, float %2, i64 0
  %49 = insertelement <2 x float> %48, float %27, i64 1
  %50 = tail call <2 x float> @llvm.fmuladd.v2f32(<2 x float> %47, <2 x float> %49, <2 x float> %45)
  %arrayidx.i10.i51 = getelementptr inbounds i8, ptr %transB, i64 32
  %51 = load float, ptr %arrayidx.i10.i51, align 4
  %arrayidx5.i11.i52 = getelementptr inbounds i8, ptr %transB, i64 36
  %52 = load float, ptr %arrayidx5.i11.i52, align 4
  %mul8.i13.i53 = fmul float %26, %52
  %53 = tail call float @llvm.fmuladd.f32(float %51, float %25, float %mul8.i13.i53)
  %arrayidx10.i14.i54 = getelementptr inbounds i8, ptr %transB, i64 40
  %54 = load float, ptr %arrayidx10.i14.i54, align 4
  %55 = tail call noundef float @llvm.fmuladd.f32(float %54, float %27, float %53)
  %56 = extractelement <2 x float> %50, i64 0
  %57 = extractelement <2 x float> %50, i64 1
  %mul8.i = fmul float %56, %57
  %58 = tail call float @llvm.fmuladd.f32(float %32, float %7, float %mul8.i)
  %59 = tail call noundef float @llvm.fmuladd.f32(float %55, float %15, float %58)
  %mul8.i64 = fmul float %22, %57
  %60 = tail call float @llvm.fmuladd.f32(float %32, float %20, float %mul8.i64)
  %61 = tail call noundef float @llvm.fmuladd.f32(float %55, float %24, float %60)
  %call.i = tail call noundef float @atan2f(float noundef %59, float noundef %61) #19
  %m_referenceSign = getelementptr inbounds i8, ptr %this, i64 756
  %62 = load float, ptr %m_referenceSign, align 4
  %mul = fmul float %call.i, %62
  ret float %mul
}